target datalayout = "e-m:e-p270:32:32-p271:32:32-p272:64:64-i64:64-i128:128-f80:128-n8:16:32:64-S128"
target triple = "x86_64-pc-linux-gnu"

@.str.206 = private unnamed_addr constant [16 x i8] c"null-terminated\00", align 1
@.str.207 = private unnamed_addr constant [12 x i8] c"null-padded\00", align 1
@.str.208 = private unnamed_addr constant [13 x i8] c"space-padded\00", align 1
@.str.209 = private unnamed_addr constant [15 x i8] c"unknown-format\00", align 1
@.str.210 = private unnamed_addr constant [6 x i8] c"ASCII\00", align 1
@.str.211 = private unnamed_addr constant [6 x i8] c"UTF-8\00", align 1
@.str.212 = private unnamed_addr constant [22 x i8] c"unknown-character-set\00", align 1
@.str.213 = private unnamed_addr constant [16 x i8] c"variable-length\00", align 1
@.str.214 = private unnamed_addr constant [9 x i8] c"%lu-byte\00", align 1
@.str.215 = private unnamed_addr constant [14 x i8] c" %s %s string\00", align 1

; Function Attrs: nounwind uwtable
define internal zeroext i1 @print_string_type(ptr noundef %0, i64 noundef %1, i32 noundef %2) #0 {
  %4 = alloca i1, align 1
  %5 = alloca ptr, align 8
  %6 = alloca i64, align 8
  %7 = alloca i32, align 4
  %8 = alloca i32, align 4
  %9 = alloca ptr, align 8
  %10 = alloca i32, align 4
  %11 = alloca ptr, align 8
  %12 = alloca i32, align 4
  store ptr %0, ptr %5, align 8, !tbaa !81
  store i64 %1, ptr %6, align 8, !tbaa !11
  store i32 %2, ptr %7, align 4, !tbaa !4
  call void @llvm.lifetime.start.p0(i64 4, ptr %8) #12
  call void @llvm.lifetime.start.p0(i64 8, ptr %9) #12
  store ptr null, ptr %9, align 8, !tbaa !13
  call void @llvm.lifetime.start.p0(i64 4, ptr %10) #12
  call void @llvm.lifetime.start.p0(i64 8, ptr %11) #12
  store ptr null, ptr %11, align 8, !tbaa !13
  %13 = load i64, ptr %6, align 8, !tbaa !11
  %14 = call i32 @H5Tget_class(i64 noundef %13)
  %15 = icmp ne i32 3, %14
  br i1 %15, label %16, label %17

16:                                               ; preds = %3
  store i1 false, ptr %4, align 1
  store i32 1, ptr %12, align 4
  br label %51

17:                                               ; preds = %3
  %18 = load i64, ptr %6, align 8, !tbaa !11
  %19 = call i32 @H5Tget_strpad(i64 noundef %18)
  store i32 %19, ptr %8, align 4, !tbaa !4
  %20 = load i32, ptr %8, align 4, !tbaa !4
  switch i32 %20, label %25 [
    i32 0, label %21
    i32 1, label %22
    i32 2, label %23
    i32 3, label %24
    i32 4, label %24
    i32 5, label %24
    i32 6, label %24
    i32 7, label %24
    i32 8, label %24
    i32 9, label %24
    i32 10, label %24
    i32 11, label %24
    i32 12, label %24
    i32 13, label %24
    i32 14, label %24
    i32 15, label %24
    i32 -1, label %24
  ]

21:                                               ; preds = %17
  store ptr @.str.206, ptr %9, align 8, !tbaa !13
  br label %26

22:                                               ; preds = %17
  store ptr @.str.207, ptr %9, align 8, !tbaa !13
  br label %26

23:                                               ; preds = %17
  store ptr @.str.208, ptr %9, align 8, !tbaa !13
  br label %26

24:                                               ; preds = %17, %17, %17, %17, %17, %17, %17, %17, %17, %17, %17, %17, %17, %17
  store ptr @.str.209, ptr %9, align 8, !tbaa !13
  br label %26

25:                                               ; preds = %17
  br label %26

26:                                               ; preds = %25, %24, %23, %22, %21
  %27 = load i64, ptr %6, align 8, !tbaa !11
  %28 = call i32 @H5Tget_cset(i64 noundef %27)
  store i32 %28, ptr %10, align 4, !tbaa !4
  %29 = load i32, ptr %10, align 4, !tbaa !4
  switch i32 %29, label %33 [
    i32 0, label %30
    i32 1, label %31
    i32 2, label %32
    i32 3, label %32
    i32 4, label %32
    i32 5, label %32
    i32 6, label %32
    i32 7, label %32
    i32 8, label %32
    i32 9, label %32
    i32 10, label %32
    i32 11, label %32
    i32 12, label %32
    i32 13, label %32
    i32 14, label %32
    i32 15, label %32
    i32 -1, label %32
  ]

30:                                               ; preds = %26
  store ptr @.str.210, ptr %11, align 8, !tbaa !13
  br label %34

31:                                               ; preds = %26
  store ptr @.str.211, ptr %11, align 8, !tbaa !13
  br label %34

32:                                               ; preds = %26, %26, %26, %26, %26, %26, %26, %26, %26, %26, %26, %26, %26, %26, %26
  store ptr @.str.212, ptr %11, align 8, !tbaa !13
  br label %34

33:                                               ; preds = %26
  br label %34

34:                                               ; preds = %33, %32, %31, %30
  %35 = load i64, ptr %6, align 8, !tbaa !11
  %36 = call i32 @H5Tis_variable_str(i64 noundef %35)
  %37 = icmp ne i32 %36, 0
  br i1 %37, label %38, label %41

38:                                               ; preds = %34
  %39 = load ptr, ptr %5, align 8, !tbaa !81
  %40 = call ptr (ptr, ptr, ...) @h5tools_str_append(ptr noundef %39, ptr noundef @.str.213)
  br label %46

41:                                               ; preds = %34
  %42 = load ptr, ptr %5, align 8, !tbaa !81
  %43 = load i64, ptr %6, align 8, !tbaa !11
  %44 = call i64 @H5Tget_size(i64 noundef %43)
  %45 = call ptr (ptr, ptr, ...) @h5tools_str_append(ptr noundef %42, ptr noundef @.str.214, i64 noundef %44)
  br label %46

46:                                               ; preds = %41, %38
  %47 = load ptr, ptr %5, align 8, !tbaa !81
  %48 = load ptr, ptr %9, align 8, !tbaa !13
  %49 = load ptr, ptr %11, align 8, !tbaa !13
  %50 = call ptr (ptr, ptr, ...) @h5tools_str_append(ptr noundef %47, ptr noundef @.str.215, ptr noundef %48, ptr noundef %49)
  store i1 true, ptr %4, align 1
  store i32 1, ptr %12, align 4
  br label %51

51:                                               ; preds = %46, %16
  call void @llvm.lifetime.end.p0(i64 8, ptr %11) #12
  call void @llvm.lifetime.end.p0(i64 4, ptr %10) #12
  call void @llvm.lifetime.end.p0(i64 8, ptr %9) #12
  call void @llvm.lifetime.end.p0(i64 4, ptr %8) #12
  %52 = load i1, ptr %4, align 1
  ret i1 %52
}