; Function Attrs: nounwind uwtable
define internal fastcc noundef zeroext i1 @print_string_type(ptr noundef nonnull %0, i64 noundef range(i64 0, -9223372036854775808) %1) unnamed_addr #4 {
  %3 = tail call i32 @H5Tget_class(i64 noundef %1) #20
  %.not = icmp eq i32 %3, 3
  br i1 %.not, label %4, label %21

4:                                                ; preds = %2
  %5 = tail call i32 @H5Tget_strpad(i64 noundef %1) #20
  %switch.tableidx = add i32 %5, 1
  %6 = icmp ult i32 %switch.tableidx, 17
  br i1 %6, label %switch.lookup, label %8

switch.lookup:                                    ; preds = %4
  %7 = zext nneg i32 %switch.tableidx to i64
  %switch.gep = getelementptr inbounds nuw [17 x ptr], ptr @switch.table.print_string_type, i64 0, i64 %7
  %switch.load = load ptr, ptr %switch.gep, align 8
  br label %8

8:                                                ; preds = %switch.lookup, %4
  %.013 = phi ptr [ null, %4 ], [ %switch.load, %switch.lookup ]
  %9 = tail call i32 @H5Tget_cset(i64 noundef %1) #20
  %switch.tableidx2 = add i32 %9, 1
  %10 = icmp ult i32 %switch.tableidx2, 17
  br i1 %10, label %switch.lookup1, label %12

switch.lookup1:                                   ; preds = %8
  %11 = zext nneg i32 %switch.tableidx2 to i64
  %switch.gep3 = getelementptr inbounds nuw [17 x ptr], ptr @switch.table.print_string_type.1, i64 0, i64 %11
  %switch.load4 = load ptr, ptr %switch.gep3, align 8
  br label %12

12:                                               ; preds = %switch.lookup1, %8
  %.0 = phi ptr [ null, %8 ], [ %switch.load4, %switch.lookup1 ]
  %13 = tail call i32 @H5Tis_variable_str(i64 noundef %1) #20
  %.not14 = icmp eq i32 %13, 0
  br i1 %.not14, label %16, label %14

14:                                               ; preds = %12
  %15 = tail call ptr (ptr, ptr, ...) @h5tools_str_append(ptr noundef nonnull %0, ptr noundef nonnull @.str.213) #20
  br label %19

16:                                               ; preds = %12
  %17 = tail call i64 @H5Tget_size(i64 noundef %1) #20
  %18 = tail call ptr (ptr, ptr, ...) @h5tools_str_append(ptr noundef nonnull %0, ptr noundef nonnull @.str.214, i64 noundef %17) #20
  br label %19

19:                                               ; preds = %16, %14
  %20 = tail call ptr (ptr, ptr, ...) @h5tools_str_append(ptr noundef nonnull %0, ptr noundef nonnull @.str.215, ptr noundef %.013, ptr noundef %.0) #20
  br label %21

21:                                               ; preds = %2, %19
  ret i1 %.not
}